target datalayout = "e-m:e-p270:32:32-p271:32:32-p272:64:64-i64:64-i128:128-f80:128-n8:16:32:64-S128"
target triple = "x86_64-pc-linux-gnu"

%union.Value = type { ptr }
%struct.Table = type { ptr, i8, i8, i8, i8, i32, ptr, ptr, ptr, ptr }
%struct.TValue = type { %union.Value, i8 }
%union.StackValue = type { %struct.TValue }
%union.Node = type { %struct.NodeKey }
%struct.NodeKey = type { %union.Value, i8, i8, i32, %union.Value }

@.str.3 = private unnamed_addr constant [22 x i8] c"invalid key to 'next'\00", align 1

; Function Attrs: nounwind uwtable
define internal i32 @checkrange(i64 noundef %0, i32 noundef %1) #0 {
  %3 = alloca i64, align 8
  %4 = alloca i32, align 4
  store i64 %0, ptr %3, align 8, !tbaa !38
  store i32 %1, ptr %4, align 4, !tbaa !19
  %5 = load i64, ptr %3, align 8, !tbaa !38
  %6 = sub i64 %5, 1
  %7 = load i32, ptr %4, align 4, !tbaa !19
  %8 = zext i32 %7 to i64
  %9 = icmp ult i64 %6, %8
  br i1 %9, label %10, label %13

10:                                               ; preds = %2
  %11 = load i64, ptr %3, align 8, !tbaa !38
  %12 = trunc i64 %11 to i32
  br label %14

13:                                               ; preds = %2
  br label %14

14:                                               ; preds = %13, %10
  %15 = phi i32 [ %12, %10 ], [ 0, %13 ]
  ret i32 %15
}

; Function Attrs: nounwind uwtable
define internal i32 @keyinarray(ptr noundef %0, ptr noundef %1) #0 {
  %3 = alloca ptr, align 8
  %4 = alloca ptr, align 8
  store ptr %0, ptr %3, align 8, !tbaa !9
  store ptr %1, ptr %4, align 8, !tbaa !22
  %5 = load ptr, ptr %4, align 8, !tbaa !22
  %6 = getelementptr inbounds nuw %struct.TValue, ptr %5, i32 0, i32 1
  %7 = load i8, ptr %6, align 8, !tbaa !24
  %8 = zext i8 %7 to i32
  %9 = icmp eq i32 %8, 3
  br i1 %9, label %10, label %18

10:                                               ; preds = %2
  %11 = load ptr, ptr %4, align 8, !tbaa !22
  %12 = getelementptr inbounds nuw %struct.TValue, ptr %11, i32 0, i32 0
  %13 = load i64, ptr %12, align 8, !tbaa !21
  %14 = load ptr, ptr %3, align 8, !tbaa !9
  %15 = getelementptr inbounds nuw %struct.Table, ptr %14, i32 0, i32 5
  %16 = load i32, ptr %15, align 4, !tbaa !13
  %17 = call i32 @checkrange(i64 noundef %13, i32 noundef %16)
  br label %19

18:                                               ; preds = %2
  br label %19

19:                                               ; preds = %18, %10
  %20 = phi i32 [ %17, %10 ], [ 0, %18 ]
  ret i32 %20
}

; Function Attrs: nounwind uwtable
define internal i32 @findindex(ptr noundef %0, ptr noundef %1, ptr noundef %2, i32 noundef %3) #0 {
  %5 = alloca i32, align 4
  %6 = alloca ptr, align 8
  %7 = alloca ptr, align 8
  %8 = alloca ptr, align 8
  %9 = alloca i32, align 4
  %10 = alloca i32, align 4
  %11 = alloca i32, align 4
  %12 = alloca ptr, align 8
  store ptr %0, ptr %6, align 8, !tbaa !4
  store ptr %1, ptr %7, align 8, !tbaa !9
  store ptr %2, ptr %8, align 8, !tbaa !22
  store i32 %3, ptr %9, align 4, !tbaa !19
  call void @llvm.lifetime.start.p0(i64 4, ptr %10) #8
  %13 = load ptr, ptr %8, align 8, !tbaa !22
  %14 = getelementptr inbounds nuw %struct.TValue, ptr %13, i32 0, i32 1
  %15 = load i8, ptr %14, align 8, !tbaa !24
  %16 = zext i8 %15 to i32
  %17 = and i32 %16, 15
  %18 = icmp eq i32 %17, 0
  br i1 %18, label %19, label %20

19:                                               ; preds = %4
  store i32 0, ptr %5, align 4
  store i32 1, ptr %11, align 4
  br label %60

20:                                               ; preds = %4
  %21 = load ptr, ptr %7, align 8, !tbaa !9
  %22 = load ptr, ptr %8, align 8, !tbaa !22
  %23 = call i32 @keyinarray(ptr noundef %21, ptr noundef %22)
  store i32 %23, ptr %10, align 4, !tbaa !19
  %24 = load i32, ptr %10, align 4, !tbaa !19
  %25 = icmp ne i32 %24, 0
  br i1 %25, label %26, label %28

26:                                               ; preds = %20
  %27 = load i32, ptr %10, align 4, !tbaa !19
  store i32 %27, ptr %5, align 4
  store i32 1, ptr %11, align 4
  br label %60

28:                                               ; preds = %20
  call void @llvm.lifetime.start.p0(i64 8, ptr %12) #8
  %29 = load ptr, ptr %7, align 8, !tbaa !9
  %30 = load ptr, ptr %8, align 8, !tbaa !22
  %31 = call ptr @getgeneric(ptr noundef %29, ptr noundef %30, i32 noundef 1)
  store ptr %31, ptr %12, align 8, !tbaa !22
  %32 = load ptr, ptr %12, align 8, !tbaa !22
  %33 = getelementptr inbounds nuw %struct.TValue, ptr %32, i32 0, i32 1
  %34 = load i8, ptr %33, align 8, !tbaa !24
  %35 = zext i8 %34 to i32
  %36 = icmp eq i32 %35, 32
  %37 = zext i1 %36 to i32
  %38 = icmp ne i32 %37, 0
  %39 = zext i1 %38 to i32
  %40 = sext i32 %39 to i64
  %41 = call i64 @llvm.expect.i64(i64 %40, i64 0)
  %42 = icmp ne i64 %41, 0
  br i1 %42, label %43, label %45

43:                                               ; preds = %28
  %44 = load ptr, ptr %6, align 8, !tbaa !4
  call void (ptr, ptr, ...) @luaG_runerror(ptr noundef %44, ptr noundef @.str.3) #9
  unreachable

45:                                               ; preds = %28
  %46 = load ptr, ptr %12, align 8, !tbaa !22
  %47 = load ptr, ptr %7, align 8, !tbaa !9
  %48 = getelementptr inbounds nuw %struct.Table, ptr %47, i32 0, i32 7
  %49 = load ptr, ptr %48, align 8, !tbaa !28
  %50 = getelementptr inbounds %union.Node, ptr %49, i64 0
  %51 = ptrtoint ptr %46 to i64
  %52 = ptrtoint ptr %50 to i64
  %53 = sub i64 %51, %52
  %54 = sdiv exact i64 %53, 24
  %55 = trunc i64 %54 to i32
  store i32 %55, ptr %10, align 4, !tbaa !19
  %56 = load i32, ptr %10, align 4, !tbaa !19
  %57 = add i32 %56, 1
  %58 = load i32, ptr %9, align 4, !tbaa !19
  %59 = add i32 %57, %58
  store i32 %59, ptr %5, align 4
  store i32 1, ptr %11, align 4
  call void @llvm.lifetime.end.p0(i64 8, ptr %12) #8
  br label %60

60:                                               ; preds = %45, %26, %19
  call void @llvm.lifetime.end.p0(i64 4, ptr %10) #8
  %61 = load i32, ptr %5, align 4
  ret i32 %61
}

; Function Attrs: nounwind uwtable
define hidden i32 @luaH_next(ptr noundef %0, ptr noundef %1, ptr noundef %2) #0 {
  %4 = alloca i32, align 4
  %5 = alloca ptr, align 8
  %6 = alloca ptr, align 8
  %7 = alloca ptr, align 8
  %8 = alloca i32, align 4
  %9 = alloca i32, align 4
  %10 = alloca i8, align 1
  %11 = alloca ptr, align 8
  %12 = alloca i32, align 4
  %13 = alloca ptr, align 8
  %14 = alloca ptr, align 8
  %15 = alloca ptr, align 8
  %16 = alloca ptr, align 8
  %17 = alloca ptr, align 8
  store ptr %0, ptr %5, align 8, !tbaa !4
  store ptr %1, ptr %6, align 8, !tbaa !9
  store ptr %2, ptr %7, align 8, !tbaa !11
  call void @llvm.lifetime.start.p0(i64 4, ptr %8) #8
  %18 = load ptr, ptr %6, align 8, !tbaa !9
  %19 = getelementptr inbounds nuw %struct.Table, ptr %18, i32 0, i32 5
  %20 = load i32, ptr %19, align 4, !tbaa !13
  store i32 %20, ptr %8, align 4, !tbaa !19
  call void @llvm.lifetime.start.p0(i64 4, ptr %9) #8
  %21 = load ptr, ptr %5, align 8, !tbaa !4
  %22 = load ptr, ptr %6, align 8, !tbaa !9
  %23 = load ptr, ptr %7, align 8, !tbaa !11
  %24 = load i32, ptr %8, align 4, !tbaa !19
  %25 = call i32 @findindex(ptr noundef %21, ptr noundef %22, ptr noundef %23, i32 noundef %24)
  store i32 %25, ptr %9, align 4, !tbaa !19
  br label %26

26:                                               ; preds = %71, %3
  %27 = load i32, ptr %9, align 4, !tbaa !19
  %28 = load i32, ptr %8, align 4, !tbaa !19
  %29 = icmp ult i32 %27, %28
  br i1 %29, label %30, label %74

30:                                               ; preds = %26
  call void @llvm.lifetime.start.p0(i64 1, ptr %10) #8
  %31 = load ptr, ptr %6, align 8, !tbaa !9
  %32 = getelementptr inbounds nuw %struct.Table, ptr %31, i32 0, i32 6
  %33 = load ptr, ptr %32, align 8, !tbaa !20
  %34 = getelementptr inbounds nuw i8, ptr %33, i64 4
  %35 = load i32, ptr %9, align 4, !tbaa !19
  %36 = zext i32 %35 to i64
  %37 = getelementptr inbounds nuw i8, ptr %34, i64 %36
  %38 = load i8, ptr %37, align 1, !tbaa !21
  store i8 %38, ptr %10, align 1, !tbaa !21
  %39 = load i8, ptr %10, align 1, !tbaa !21
  %40 = zext i8 %39 to i32
  %41 = and i32 %40, 15
  %42 = icmp eq i32 %41, 0
  br i1 %42, label %67, label %43

43:                                               ; preds = %30
  call void @llvm.lifetime.start.p0(i64 8, ptr %11) #8
  %44 = load ptr, ptr %7, align 8, !tbaa !11
  store ptr %44, ptr %11, align 8, !tbaa !22
  %45 = load i32, ptr %9, align 4, !tbaa !19
  %46 = add nsw i32 %45, 1
  %47 = sext i32 %46 to i64
  %48 = load ptr, ptr %11, align 8, !tbaa !22
  %49 = getelementptr inbounds nuw %struct.TValue, ptr %48, i32 0, i32 0
  store i64 %47, ptr %49, align 8, !tbaa !21
  %50 = load ptr, ptr %11, align 8, !tbaa !22
  %51 = getelementptr inbounds nuw %struct.TValue, ptr %50, i32 0, i32 1
  store i8 3, ptr %51, align 8, !tbaa !24
  call void @llvm.lifetime.end.p0(i64 8, ptr %11) #8
  %52 = load i8, ptr %10, align 1, !tbaa !21
  %53 = load ptr, ptr %7, align 8, !tbaa !11
  %54 = getelementptr inbounds %union.StackValue, ptr %53, i64 1
  %55 = getelementptr inbounds nuw %struct.TValue, ptr %54, i32 0, i32 1
  store i8 %52, ptr %55, align 8, !tbaa !21
  %56 = load ptr, ptr %7, align 8, !tbaa !11
  %57 = getelementptr inbounds %union.StackValue, ptr %56, i64 1
  %58 = getelementptr inbounds nuw %struct.TValue, ptr %57, i32 0, i32 0
  %59 = load ptr, ptr %6, align 8, !tbaa !9
  %60 = getelementptr inbounds nuw %struct.Table, ptr %59, i32 0, i32 6
  %61 = load ptr, ptr %60, align 8, !tbaa !20
  %62 = getelementptr inbounds %union.Value, ptr %61, i64 -1
  %63 = load i32, ptr %9, align 4, !tbaa !19
  %64 = zext i32 %63 to i64
  %65 = sub i64 0, %64
  %66 = getelementptr inbounds %union.Value, ptr %62, i64 %65
  call void @llvm.memcpy.p0.p0.i64(ptr align 8 %58, ptr align 8 %66, i64 8, i1 false), !tbaa.struct !26
  store i32 1, ptr %4, align 4
  store i32 1, ptr %12, align 4
  br label %68

67:                                               ; preds = %30
  store i32 0, ptr %12, align 4
  br label %68

68:                                               ; preds = %67, %43
  call void @llvm.lifetime.end.p0(i64 1, ptr %10) #8
  %69 = load i32, ptr %12, align 4
  switch i32 %69, label %133 [
    i32 0, label %70
  ]

70:                                               ; preds = %68
  br label %71

71:                                               ; preds = %70
  %72 = load i32, ptr %9, align 4, !tbaa !19
  %73 = add i32 %72, 1
  store i32 %73, ptr %9, align 4, !tbaa !19
  br label %26

74:                                               ; preds = %26
  %75 = load i32, ptr %8, align 4, !tbaa !19
  %76 = load i32, ptr %9, align 4, !tbaa !19
  %77 = sub i32 %76, %75
  store i32 %77, ptr %9, align 4, !tbaa !19
  br label %78

78:                                               ; preds = %129, %74
  %79 = load i32, ptr %9, align 4, !tbaa !19
  %80 = load ptr, ptr %6, align 8, !tbaa !9
  %81 = getelementptr inbounds nuw %struct.Table, ptr %80, i32 0, i32 4
  %82 = load i8, ptr %81, align 1, !tbaa !27
  %83 = zext i8 %82 to i32
  %84 = shl i32 1, %83
  %85 = icmp ult i32 %79, %84
  br i1 %85, label %86, label %132

86:                                               ; preds = %78
  %87 = load ptr, ptr %6, align 8, !tbaa !9
  %88 = getelementptr inbounds nuw %struct.Table, ptr %87, i32 0, i32 7
  %89 = load ptr, ptr %88, align 8, !tbaa !28
  %90 = load i32, ptr %9, align 4, !tbaa !19
  %91 = zext i32 %90 to i64
  %92 = getelementptr inbounds nuw %union.Node, ptr %89, i64 %91
  %93 = getelementptr inbounds nuw %struct.TValue, ptr %92, i32 0, i32 1
  %94 = load i8, ptr %93, align 8, !tbaa !21
  %95 = zext i8 %94 to i32
  %96 = and i32 %95, 15
  %97 = icmp eq i32 %96, 0
  br i1 %97, label %128, label %98

98:                                               ; preds = %86
  call void @llvm.lifetime.start.p0(i64 8, ptr %13) #8
  %99 = load ptr, ptr %6, align 8, !tbaa !9
  %100 = getelementptr inbounds nuw %struct.Table, ptr %99, i32 0, i32 7
  %101 = load ptr, ptr %100, align 8, !tbaa !28
  %102 = load i32, ptr %9, align 4, !tbaa !19
  %103 = zext i32 %102 to i64
  %104 = getelementptr inbounds nuw %union.Node, ptr %101, i64 %103
  store ptr %104, ptr %13, align 8, !tbaa !29
  call void @llvm.lifetime.start.p0(i64 8, ptr %14) #8
  %105 = load ptr, ptr %7, align 8, !tbaa !11
  store ptr %105, ptr %14, align 8, !tbaa !22
  call void @llvm.lifetime.start.p0(i64 8, ptr %15) #8
  %106 = load ptr, ptr %13, align 8, !tbaa !29
  store ptr %106, ptr %15, align 8, !tbaa !29
  %107 = load ptr, ptr %14, align 8, !tbaa !22
  %108 = getelementptr inbounds nuw %struct.TValue, ptr %107, i32 0, i32 0
  %109 = load ptr, ptr %15, align 8, !tbaa !29
  %110 = getelementptr inbounds nuw %struct.NodeKey, ptr %109, i32 0, i32 4
  call void @llvm.memcpy.p0.p0.i64(ptr align 8 %108, ptr align 8 %110, i64 8, i1 false), !tbaa.struct !26
  %111 = load ptr, ptr %15, align 8, !tbaa !29
  %112 = getelementptr inbounds nuw %struct.NodeKey, ptr %111, i32 0, i32 2
  %113 = load i8, ptr %112, align 1, !tbaa !21
  %114 = load ptr, ptr %14, align 8, !tbaa !22
  %115 = getelementptr inbounds nuw %struct.TValue, ptr %114, i32 0, i32 1
  store i8 %113, ptr %115, align 8, !tbaa !24
  call void @llvm.lifetime.end.p0(i64 8, ptr %15) #8
  call void @llvm.lifetime.end.p0(i64 8, ptr %14) #8
  call void @llvm.lifetime.start.p0(i64 8, ptr %16) #8
  %116 = load ptr, ptr %7, align 8, !tbaa !11
  %117 = getelementptr inbounds %union.StackValue, ptr %116, i64 1
  store ptr %117, ptr %16, align 8, !tbaa !22
  call void @llvm.lifetime.start.p0(i64 8, ptr %17) #8
  %118 = load ptr, ptr %13, align 8, !tbaa !29
  store ptr %118, ptr %17, align 8, !tbaa !22
  %119 = load ptr, ptr %16, align 8, !tbaa !22
  %120 = getelementptr inbounds nuw %struct.TValue, ptr %119, i32 0, i32 0
  %121 = load ptr, ptr %17, align 8, !tbaa !22
  %122 = getelementptr inbounds nuw %struct.TValue, ptr %121, i32 0, i32 0
  call void @llvm.memcpy.p0.p0.i64(ptr align 8 %120, ptr align 8 %122, i64 8, i1 false), !tbaa.struct !26
  %123 = load ptr, ptr %17, align 8, !tbaa !22
  %124 = getelementptr inbounds nuw %struct.TValue, ptr %123, i32 0, i32 1
  %125 = load i8, ptr %124, align 8, !tbaa !24
  %126 = load ptr, ptr %16, align 8, !tbaa !22
  %127 = getelementptr inbounds nuw %struct.TValue, ptr %126, i32 0, i32 1
  store i8 %125, ptr %127, align 8, !tbaa !24
  call void @llvm.lifetime.end.p0(i64 8, ptr %17) #8
  call void @llvm.lifetime.end.p0(i64 8, ptr %16) #8
  store i32 1, ptr %4, align 4
  store i32 1, ptr %12, align 4
  call void @llvm.lifetime.end.p0(i64 8, ptr %13) #8
  br label %133

128:                                              ; preds = %86
  br label %129

129:                                              ; preds = %128
  %130 = load i32, ptr %9, align 4, !tbaa !19
  %131 = add i32 %130, 1
  store i32 %131, ptr %9, align 4, !tbaa !19
  br label %78

132:                                              ; preds = %78
  store i32 0, ptr %4, align 4
  store i32 1, ptr %12, align 4
  br label %133

133:                                              ; preds = %132, %98, %68
  call void @llvm.lifetime.end.p0(i64 4, ptr %9) #8
  call void @llvm.lifetime.end.p0(i64 4, ptr %8) #8
  %134 = load i32, ptr %4, align 4
  ret i32 %134
}