; Function Attrs: nounwind uwtable
define hidden range(i32 0, 2) i32 @luaH_next(ptr noundef %0, ptr noundef readonly captures(none) %1, ptr noundef captures(none) %2) local_unnamed_addr #0 {
  %4 = getelementptr inbounds nuw i8, ptr %1, i64 12
  %5 = load i32, ptr %4, align 4, !tbaa !4
  %6 = getelementptr inbounds nuw i8, ptr %2, i64 8
  %7 = load i8, ptr %6, align 8, !tbaa !14
  %8 = and i8 %7, 15
  %9 = icmp eq i8 %8, 0
  br i1 %9, label %findindex.exit, label %10

10:                                               ; preds = %3
  %11 = icmp eq i8 %7, 3
  br i1 %11, label %12, label %keyinarray.exit.thread.i

12:                                               ; preds = %10
  %13 = load i64, ptr %2, align 8, !tbaa !16
  %14 = add i64 %13, -1
  %15 = zext i32 %5 to i64
  %16 = icmp uge i64 %14, %15
  %17 = trunc i64 %13 to i32
  %.not.i = icmp eq i32 %17, 0
  %or.cond.i = or i1 %.not.i, %16
  br i1 %or.cond.i, label %keyinarray.exit.thread.i, label %findindex.exit

keyinarray.exit.thread.i:                         ; preds = %12, %10
  %18 = tail call fastcc ptr @getgeneric(ptr noundef nonnull readonly %1, ptr noundef nonnull readonly %2, i32 noundef 1)
  %19 = getelementptr inbounds nuw i8, ptr %18, i64 8
  %20 = load i8, ptr %19, align 8, !tbaa !14
  %21 = icmp eq i8 %20, 32
  br i1 %21, label %22, label %23, !prof !17

22:                                               ; preds = %keyinarray.exit.thread.i
  tail call void (ptr, ptr, ...) @luaG_runerror(ptr noundef %0, ptr noundef nonnull @.str.3) #12
  unreachable

23:                                               ; preds = %keyinarray.exit.thread.i
  %24 = getelementptr inbounds nuw i8, ptr %1, i64 24
  %25 = load ptr, ptr %24, align 8, !tbaa !18
  %26 = ptrtoint ptr %18 to i64
  %27 = ptrtoint ptr %25 to i64
  %28 = sub i64 %26, %27
  %29 = sdiv exact i64 %28, 24
  %30 = trunc i64 %29 to i32
  %31 = add i32 %5, 1
  %32 = add i32 %31, %30
  br label %findindex.exit

findindex.exit:                                   ; preds = %3, %12, %23
  %.0.i = phi i32 [ %32, %23 ], [ 0, %3 ], [ %17, %12 ]
  %33 = icmp ult i32 %.0.i, %5
  br i1 %33, label %.lr.ph, label %._crit_edge

.lr.ph:                                           ; preds = %findindex.exit
  %34 = getelementptr inbounds nuw i8, ptr %1, i64 16
  %35 = load ptr, ptr %34, align 8, !tbaa !19
  %36 = getelementptr inbounds nuw i8, ptr %35, i64 4
  %37 = zext i32 %.0.i to i64
  br label %38

38:                                               ; preds = %.lr.ph, %.critedge
  %indvars.iv = phi i64 [ %37, %.lr.ph ], [ %indvars.iv.next, %.critedge ]
  %39 = getelementptr inbounds nuw i8, ptr %36, i64 %indvars.iv
  %40 = load i8, ptr %39, align 1, !tbaa !16
  %41 = and i8 %40, 15
  %42 = icmp eq i8 %41, 0
  br i1 %42, label %.critedge, label %43

43:                                               ; preds = %38
  %44 = shl i64 %indvars.iv, 32
  %sext = add i64 %44, 4294967296
  %45 = ashr exact i64 %sext, 32
  store i64 %45, ptr %2, align 8, !tbaa !16
  store i8 3, ptr %6, align 8, !tbaa !14
  %46 = getelementptr inbounds nuw i8, ptr %2, i64 16
  %47 = getelementptr inbounds nuw i8, ptr %2, i64 24
  store i8 %40, ptr %47, align 8, !tbaa !16
  %48 = load ptr, ptr %34, align 8, !tbaa !19
  %49 = getelementptr inbounds i8, ptr %48, i64 -8
  %50 = sub nsw i64 0, %indvars.iv
  %51 = getelementptr inbounds %union.Value, ptr %49, i64 %50
  %52 = load i64, ptr %51, align 8, !tbaa !16
  store i64 %52, ptr %46, align 8, !tbaa !16
  br label %.loopexit

.critedge:                                        ; preds = %38
  %indvars.iv.next = add nuw nsw i64 %indvars.iv, 1
  %lftr.wideiv = trunc i64 %indvars.iv.next to i32
  %exitcond.not = icmp eq i32 %5, %lftr.wideiv
  br i1 %exitcond.not, label %._crit_edge, label %38

._crit_edge:                                      ; preds = %.critedge, %findindex.exit
  %.042.lcssa = phi i32 [ %.0.i, %findindex.exit ], [ %5, %.critedge ]
  %53 = sub nuw i32 %.042.lcssa, %5
  %54 = getelementptr inbounds nuw i8, ptr %1, i64 11
  %55 = load i8, ptr %54, align 1, !tbaa !20
  %56 = zext nneg i8 %55 to i32
  %.143.highbits53 = lshr i32 %53, %56
  %57 = icmp eq i32 %.143.highbits53, 0
  br i1 %57, label %.lr.ph56, label %.loopexit

.lr.ph56:                                         ; preds = %._crit_edge
  %58 = getelementptr inbounds nuw i8, ptr %1, i64 24
  %59 = load ptr, ptr %58, align 8, !tbaa !18
  br label %63

60:                                               ; preds = %63
  %61 = add i32 %.14354, 1
  %.143.highbits = lshr i32 %61, %56
  %62 = icmp eq i32 %.143.highbits, 0
  br i1 %62, label %63, label %.loopexit

63:                                               ; preds = %.lr.ph56, %60
  %.14354 = phi i32 [ %53, %.lr.ph56 ], [ %61, %60 ]
  %64 = zext i32 %.14354 to i64
  %65 = getelementptr inbounds nuw %union.Node, ptr %59, i64 %64
  %66 = getelementptr inbounds nuw i8, ptr %65, i64 8
  %67 = load i8, ptr %66, align 8, !tbaa !16
  %68 = and i8 %67, 15
  %69 = icmp eq i8 %68, 0
  br i1 %69, label %60, label %70

70:                                               ; preds = %63
  %71 = getelementptr inbounds nuw i8, ptr %65, i64 8
  %72 = getelementptr inbounds nuw i8, ptr %65, i64 16
  %73 = load i64, ptr %72, align 8, !tbaa !16
  store i64 %73, ptr %2, align 8, !tbaa !16
  %74 = getelementptr inbounds nuw i8, ptr %65, i64 9
  %75 = load i8, ptr %74, align 1, !tbaa !16
  store i8 %75, ptr %6, align 8, !tbaa !14
  %76 = getelementptr inbounds nuw i8, ptr %2, i64 16
  %77 = load i64, ptr %65, align 8, !tbaa !16
  store i64 %77, ptr %76, align 8, !tbaa !16
  %78 = load i8, ptr %71, align 8, !tbaa !14
  %79 = getelementptr inbounds nuw i8, ptr %2, i64 24
  store i8 %78, ptr %79, align 8, !tbaa !14
  br label %.loopexit

.loopexit:                                        ; preds = %60, %._crit_edge, %43, %70
  %.2 = phi i32 [ 1, %43 ], [ 1, %70 ], [ 0, %._crit_edge ], [ 0, %60 ]
  ret i32 %.2
}